target datalayout = "e-m:e-p270:32:32-p271:32:32-p272:64:64-i64:64-i128:128-f80:128-n8:16:32:64-S128"
target triple = "x86_64-unknown-linux-gnu"

%"class.icu_75::OlsonTimeZone" = type { %"class.icu_75::BasicTimeZone", i16, i16, i16, ptr, ptr, ptr, i16, ptr, ptr, ptr, double, i32, ptr, ptr, ptr, i16, ptr, ptr, i16, ptr, %"struct.icu_75::UInitOnce" }
%"class.icu_75::BasicTimeZone" = type { %"class.icu_75::TimeZone" }
%"class.icu_75::TimeZone" = type { %"class.icu_75::UObject", %"class.icu_75::UnicodeString" }
%"class.icu_75::UObject" = type { ptr }
%"class.icu_75::UnicodeString" = type { %"class.icu_75::Replaceable", %"union.icu_75::UnicodeString::StackBufferOrFields" }
%"class.icu_75::Replaceable" = type { %"class.icu_75::UObject" }
%"union.icu_75::UnicodeString::StackBufferOrFields" = type { %struct.anon.0, [32 x i8] }
%struct.anon.0 = type { i16, i32, i32, ptr }
%"struct.icu_75::UInitOnce" = type { %"struct.std::atomic", i32 }
%"struct.std::atomic" = type { %"struct.std::__atomic_base" }
%"struct.std::__atomic_base" = type { i32 }

; Function Attrs: noreturn nounwind uwtable
define linkonce_odr hidden void @__clang_call_terminate(ptr noundef %0) #4 comdat {
  %2 = call ptr @__cxa_begin_catch(ptr %0) #9
  call void @_ZSt9terminatev() #10
  unreachable
}

; Function Attrs: mustprogress nounwind uwtable
define linkonce_odr noundef i32 @_ZStanSt12memory_orderSt23__memory_order_modifier(i32 noundef %__m, i32 noundef %__mod) #0 comdat {
entry:
  %__m.addr = alloca i32, align 4
  %__mod.addr = alloca i32, align 4
  store i32 %__m, ptr %__m.addr, align 4
  store i32 %__mod, ptr %__mod.addr, align 4
  %0 = load i32, ptr %__m.addr, align 4
  %1 = load i32, ptr %__mod.addr, align 4
  %and = and i32 %0, %1
  ret i32 %and
}

; Function Attrs: mustprogress nounwind uwtable
define linkonce_odr noundef i32 @_ZNSt13__atomic_baseIiEaSEi(ptr noundef nonnull align 4 dereferenceable(4) %this, i32 noundef %__i) #0 comdat align 2 personality ptr @__gxx_personality_v0 {
entry:
  %this.addr.i = alloca ptr, align 8
  %__i.addr.i = alloca i32, align 4
  %__m.addr.i = alloca i32, align 4
  %__b.i = alloca i32, align 4
  %.atomictmp.i = alloca i32, align 4
  %this.addr = alloca ptr, align 8
  %__i.addr = alloca i32, align 4
  store ptr %this, ptr %this.addr, align 8
  store i32 %__i, ptr %__i.addr, align 4
  %this1 = load ptr, ptr %this.addr, align 8
  %0 = load i32, ptr %__i.addr, align 4
  store ptr %this1, ptr %this.addr.i, align 8
  store i32 %0, ptr %__i.addr.i, align 4
  store i32 5, ptr %__m.addr.i, align 4
  %this1.i = load ptr, ptr %this.addr.i, align 8
  %1 = load i32, ptr %__m.addr.i, align 4
  %call.i = invoke noundef i32 @_ZStanSt12memory_orderSt23__memory_order_modifier(i32 noundef %1, i32 noundef 65535)
          to label %invoke.cont.i unwind label %terminate.lpad.i

invoke.cont.i:                                    ; preds = %entry
  store i32 %call.i, ptr %__b.i, align 4
  %2 = load i32, ptr %__m.addr.i, align 4
  %3 = load i32, ptr %__i.addr.i, align 4
  store i32 %3, ptr %.atomictmp.i, align 4
  switch i32 %2, label %monotonic.i [
    i32 3, label %release.i
    i32 5, label %seqcst.i
  ]

monotonic.i:                                      ; preds = %invoke.cont.i
  %4 = load i32, ptr %.atomictmp.i, align 4
  store atomic i32 %4, ptr %this1.i monotonic, align 4
  br label %_ZNSt13__atomic_baseIiE5storeEiSt12memory_order.exit

release.i:                                        ; preds = %invoke.cont.i
  %5 = load i32, ptr %.atomictmp.i, align 4
  store atomic i32 %5, ptr %this1.i release, align 4
  br label %_ZNSt13__atomic_baseIiE5storeEiSt12memory_order.exit

seqcst.i:                                         ; preds = %invoke.cont.i
  %6 = load i32, ptr %.atomictmp.i, align 4
  store atomic i32 %6, ptr %this1.i seq_cst, align 4
  br label %_ZNSt13__atomic_baseIiE5storeEiSt12memory_order.exit

terminate.lpad.i:                                 ; preds = %entry
  %7 = landingpad { ptr, i32 }
          catch ptr null
  %8 = extractvalue { ptr, i32 } %7, 0
  call void @__clang_call_terminate(ptr %8) #10
  unreachable

_ZNSt13__atomic_baseIiE5storeEiSt12memory_order.exit: ; preds = %seqcst.i, %release.i, %monotonic.i
  %9 = load i32, ptr %__i.addr, align 4
  ret i32 %9
}

; Function Attrs: mustprogress nounwind uwtable
define linkonce_odr void @_ZN6icu_759UInitOnce5resetEv(ptr noundef nonnull align 4 dereferenceable(8) %this) #0 comdat align 2 {
entry:
  %this.addr = alloca ptr, align 8
  store ptr %this, ptr %this.addr, align 8
  %this1 = load ptr, ptr %this.addr, align 8
  %fState = getelementptr inbounds %"struct.icu_75::UInitOnce", ptr %this1, i32 0, i32 0
  %call = call noundef i32 @_ZNSt13__atomic_baseIiEaSEi(ptr noundef nonnull align 4 dereferenceable(4) %fState, i32 noundef 0) #9
  ret void
}

; Function Attrs: mustprogress uwtable
define void @_ZN6icu_7513OlsonTimeZone20clearTransitionRulesEv(ptr noundef nonnull align 8 dereferenceable(224) %this) #1 align 2 {
entry:
  %this.addr = alloca ptr, align 8
  store ptr %this, ptr %this.addr, align 8
  %this1 = load ptr, ptr %this.addr, align 8
  %initialRule = getelementptr inbounds %"class.icu_75::OlsonTimeZone", ptr %this1, i32 0, i32 14
  store ptr null, ptr %initialRule, align 8
  %firstTZTransition = getelementptr inbounds %"class.icu_75::OlsonTimeZone", ptr %this1, i32 0, i32 15
  store ptr null, ptr %firstTZTransition, align 8
  %firstFinalTZTransition = getelementptr inbounds %"class.icu_75::OlsonTimeZone", ptr %this1, i32 0, i32 17
  store ptr null, ptr %firstFinalTZTransition, align 8
  %historicRules = getelementptr inbounds %"class.icu_75::OlsonTimeZone", ptr %this1, i32 0, i32 18
  store ptr null, ptr %historicRules, align 8
  %historicRuleCount = getelementptr inbounds %"class.icu_75::OlsonTimeZone", ptr %this1, i32 0, i32 19
  store i16 0, ptr %historicRuleCount, align 8
  %finalZoneWithStartYear = getelementptr inbounds %"class.icu_75::OlsonTimeZone", ptr %this1, i32 0, i32 20
  store ptr null, ptr %finalZoneWithStartYear, align 8
  %firstTZTransitionIdx = getelementptr inbounds %"class.icu_75::OlsonTimeZone", ptr %this1, i32 0, i32 16
  store i16 0, ptr %firstTZTransitionIdx, align 8
  %transitionRulesInitOnce = getelementptr inbounds %"class.icu_75::OlsonTimeZone", ptr %this1, i32 0, i32 21
  call void @_ZN6icu_759UInitOnce5resetEv(ptr noundef nonnull align 4 dereferenceable(8) %transitionRulesInitOnce)
  ret void
}

; Function Attrs: mustprogress uwtable
define void @_ZN6icu_7513OlsonTimeZone21deleteTransitionRulesEv(ptr noundef nonnull align 8 dereferenceable(224) %this) #1 align 2 {
entry:
  %this.addr = alloca ptr, align 8
  %i = alloca i32, align 4
  store ptr %this, ptr %this.addr, align 8
  %this1 = load ptr, ptr %this.addr, align 8
  %initialRule = getelementptr inbounds %"class.icu_75::OlsonTimeZone", ptr %this1, i32 0, i32 14
  %0 = load ptr, ptr %initialRule, align 8
  %cmp = icmp ne ptr %0, null
  br i1 %cmp, label %if.then, label %if.end

if.then:                                          ; preds = %entry
  %initialRule2 = getelementptr inbounds %"class.icu_75::OlsonTimeZone", ptr %this1, i32 0, i32 14
  %1 = load ptr, ptr %initialRule2, align 8
  %isnull = icmp eq ptr %1, null
  br i1 %isnull, label %delete.end, label %delete.notnull

delete.notnull:                                   ; preds = %if.then
  %vtable = load ptr, ptr %1, align 8
  %vfn = getelementptr inbounds ptr, ptr %vtable, i64 1
  %2 = load ptr, ptr %vfn, align 8
  call void %2(ptr noundef nonnull align 8 dereferenceable(80) %1) #9
  br label %delete.end

delete.end:                                       ; preds = %delete.notnull, %if.then
  br label %if.end

if.end:                                           ; preds = %delete.end, %entry
  %firstTZTransition = getelementptr inbounds %"class.icu_75::OlsonTimeZone", ptr %this1, i32 0, i32 15
  %3 = load ptr, ptr %firstTZTransition, align 8
  %cmp3 = icmp ne ptr %3, null
  br i1 %cmp3, label %if.then4, label %if.end11

if.then4:                                         ; preds = %if.end
  %firstTZTransition5 = getelementptr inbounds %"class.icu_75::OlsonTimeZone", ptr %this1, i32 0, i32 15
  %4 = load ptr, ptr %firstTZTransition5, align 8
  %isnull6 = icmp eq ptr %4, null
  br i1 %isnull6, label %delete.end10, label %delete.notnull7

delete.notnull7:                                  ; preds = %if.then4
  %vtable8 = load ptr, ptr %4, align 8
  %vfn9 = getelementptr inbounds ptr, ptr %vtable8, i64 1
  %5 = load ptr, ptr %vfn9, align 8
  call void %5(ptr noundef nonnull align 8 dereferenceable(32) %4) #9
  br label %delete.end10

delete.end10:                                     ; preds = %delete.notnull7, %if.then4
  br label %if.end11

if.end11:                                         ; preds = %delete.end10, %if.end
  %firstFinalTZTransition = getelementptr inbounds %"class.icu_75::OlsonTimeZone", ptr %this1, i32 0, i32 17
  %6 = load ptr, ptr %firstFinalTZTransition, align 8
  %cmp12 = icmp ne ptr %6, null
  br i1 %cmp12, label %if.then13, label %if.end20

if.then13:                                        ; preds = %if.end11
  %firstFinalTZTransition14 = getelementptr inbounds %"class.icu_75::OlsonTimeZone", ptr %this1, i32 0, i32 17
  %7 = load ptr, ptr %firstFinalTZTransition14, align 8
  %isnull15 = icmp eq ptr %7, null
  br i1 %isnull15, label %delete.end19, label %delete.notnull16

delete.notnull16:                                 ; preds = %if.then13
  %vtable17 = load ptr, ptr %7, align 8
  %vfn18 = getelementptr inbounds ptr, ptr %vtable17, i64 1
  %8 = load ptr, ptr %vfn18, align 8
  call void %8(ptr noundef nonnull align 8 dereferenceable(32) %7) #9
  br label %delete.end19

delete.end19:                                     ; preds = %delete.notnull16, %if.then13
  br label %if.end20

if.end20:                                         ; preds = %delete.end19, %if.end11
  %finalZoneWithStartYear = getelementptr inbounds %"class.icu_75::OlsonTimeZone", ptr %this1, i32 0, i32 20
  %9 = load ptr, ptr %finalZoneWithStartYear, align 8
  %cmp21 = icmp ne ptr %9, null
  br i1 %cmp21, label %if.then22, label %if.end29

if.then22:                                        ; preds = %if.end20
  %finalZoneWithStartYear23 = getelementptr inbounds %"class.icu_75::OlsonTimeZone", ptr %this1, i32 0, i32 20
  %10 = load ptr, ptr %finalZoneWithStartYear23, align 8
  %isnull24 = icmp eq ptr %10, null
  br i1 %isnull24, label %delete.end28, label %delete.notnull25

delete.notnull25:                                 ; preds = %if.then22
  %vtable26 = load ptr, ptr %10, align 8
  %vfn27 = getelementptr inbounds ptr, ptr %vtable26, i64 1
  %11 = load ptr, ptr %vfn27, align 8
  call void %11(ptr noundef nonnull align 8 dereferenceable(160) %10) #9
  br label %delete.end28

delete.end28:                                     ; preds = %delete.notnull25, %if.then22
  br label %if.end29

if.end29:                                         ; preds = %delete.end28, %if.end20
  %historicRules = getelementptr inbounds %"class.icu_75::OlsonTimeZone", ptr %this1, i32 0, i32 18
  %12 = load ptr, ptr %historicRules, align 8
  %cmp30 = icmp ne ptr %12, null
  br i1 %cmp30, label %if.then31, label %if.end46

if.then31:                                        ; preds = %if.end29
  store i32 0, ptr %i, align 4
  br label %for.cond

for.cond:                                         ; preds = %for.inc, %if.then31
  %13 = load i32, ptr %i, align 4
  %historicRuleCount = getelementptr inbounds %"class.icu_75::OlsonTimeZone", ptr %this1, i32 0, i32 19
  %14 = load i16, ptr %historicRuleCount, align 8
  %conv = sext i16 %14 to i32
  %cmp32 = icmp slt i32 %13, %conv
  br i1 %cmp32, label %for.body, label %for.end

for.body:                                         ; preds = %for.cond
  %historicRules33 = getelementptr inbounds %"class.icu_75::OlsonTimeZone", ptr %this1, i32 0, i32 18
  %15 = load ptr, ptr %historicRules33, align 8
  %16 = load i32, ptr %i, align 4
  %idxprom = sext i32 %16 to i64
  %arrayidx = getelementptr inbounds ptr, ptr %15, i64 %idxprom
  %17 = load ptr, ptr %arrayidx, align 8
  %cmp34 = icmp ne ptr %17, null
  br i1 %cmp34, label %if.then35, label %if.end44

if.then35:                                        ; preds = %for.body
  %historicRules36 = getelementptr inbounds %"class.icu_75::OlsonTimeZone", ptr %this1, i32 0, i32 18
  %18 = load ptr, ptr %historicRules36, align 8
  %19 = load i32, ptr %i, align 4
  %idxprom37 = sext i32 %19 to i64
  %arrayidx38 = getelementptr inbounds ptr, ptr %18, i64 %idxprom37
  %20 = load ptr, ptr %arrayidx38, align 8
  %isnull39 = icmp eq ptr %20, null
  br i1 %isnull39, label %delete.end43, label %delete.notnull40

delete.notnull40:                                 ; preds = %if.then35
  %vtable41 = load ptr, ptr %20, align 8
  %vfn42 = getelementptr inbounds ptr, ptr %vtable41, i64 1
  %21 = load ptr, ptr %vfn42, align 8
  call void %21(ptr noundef nonnull align 8 dereferenceable(352) %20) #9
  br label %delete.end43

delete.end43:                                     ; preds = %delete.notnull40, %if.then35
  br label %if.end44

if.end44:                                         ; preds = %delete.end43, %for.body
  br label %for.inc

for.inc:                                          ; preds = %if.end44
  %22 = load i32, ptr %i, align 4
  %inc = add nsw i32 %22, 1
  store i32 %inc, ptr %i, align 4
  br label %for.cond, !llvm.loop !5

for.end:                                          ; preds = %for.cond
  %historicRules45 = getelementptr inbounds %"class.icu_75::OlsonTimeZone", ptr %this1, i32 0, i32 18
  %23 = load ptr, ptr %historicRules45, align 8
  call void @uprv_free_75(ptr noundef %23)
  br label %if.end46

if.end46:                                         ; preds = %for.end, %if.end29
  call void @_ZN6icu_7513OlsonTimeZone20clearTransitionRulesEv(ptr noundef nonnull align 8 dereferenceable(224) %this1)
  ret void
}