; Function Attrs: mustprogress uwtable
define void @_ZN6icu_7513OlsonTimeZone21deleteTransitionRulesEv(ptr nocapture noundef nonnull align 8 dereferenceable(224) %this) local_unnamed_addr #2 align 2 personality ptr @__gxx_personality_v0 {
entry:
  %initialRule = getelementptr inbounds i8, ptr %this, i64 160
  %0 = load ptr, ptr %initialRule, align 8
  %cmp.not = icmp eq ptr %0, null
  br i1 %cmp.not, label %if.end, label %delete.notnull

delete.notnull:                                   ; preds = %entry
  %vtable = load ptr, ptr %0, align 8
  %vfn = getelementptr inbounds i8, ptr %vtable, i64 8
  %1 = load ptr, ptr %vfn, align 8
  tail call void %1(ptr noundef nonnull align 8 dereferenceable(80) %0) #16
  br label %if.end

if.end:                                           ; preds = %delete.notnull, %entry
  %firstTZTransition = getelementptr inbounds i8, ptr %this, i64 168
  %2 = load ptr, ptr %firstTZTransition, align 8
  %cmp3.not = icmp eq ptr %2, null
  br i1 %cmp3.not, label %if.end11, label %delete.notnull7

delete.notnull7:                                  ; preds = %if.end
  %vtable8 = load ptr, ptr %2, align 8
  %vfn9 = getelementptr inbounds i8, ptr %vtable8, i64 8
  %3 = load ptr, ptr %vfn9, align 8
  tail call void %3(ptr noundef nonnull align 8 dereferenceable(32) %2) #16
  br label %if.end11

if.end11:                                         ; preds = %delete.notnull7, %if.end
  %firstFinalTZTransition = getelementptr inbounds i8, ptr %this, i64 184
  %4 = load ptr, ptr %firstFinalTZTransition, align 8
  %cmp12.not = icmp eq ptr %4, null
  br i1 %cmp12.not, label %if.end20, label %delete.notnull16

delete.notnull16:                                 ; preds = %if.end11
  %vtable17 = load ptr, ptr %4, align 8
  %vfn18 = getelementptr inbounds i8, ptr %vtable17, i64 8
  %5 = load ptr, ptr %vfn18, align 8
  tail call void %5(ptr noundef nonnull align 8 dereferenceable(32) %4) #16
  br label %if.end20

if.end20:                                         ; preds = %delete.notnull16, %if.end11
  %finalZoneWithStartYear = getelementptr inbounds i8, ptr %this, i64 208
  %6 = load ptr, ptr %finalZoneWithStartYear, align 8
  %cmp21.not = icmp eq ptr %6, null
  br i1 %cmp21.not, label %if.end29, label %delete.notnull25

delete.notnull25:                                 ; preds = %if.end20
  %vtable26 = load ptr, ptr %6, align 8
  %vfn27 = getelementptr inbounds i8, ptr %vtable26, i64 8
  %7 = load ptr, ptr %vfn27, align 8
  tail call void %7(ptr noundef nonnull align 8 dereferenceable(160) %6) #16
  br label %if.end29

if.end29:                                         ; preds = %delete.notnull25, %if.end20
  %historicRules = getelementptr inbounds i8, ptr %this, i64 192
  %8 = load ptr, ptr %historicRules, align 8
  %cmp30.not = icmp eq ptr %8, null
  br i1 %cmp30.not, label %if.end46, label %for.cond.preheader

for.cond.preheader:                               ; preds = %if.end29
  %historicRuleCount = getelementptr inbounds i8, ptr %this, i64 200
  %9 = load i16, ptr %historicRuleCount, align 8
  %cmp329 = icmp sgt i16 %9, 0
  br i1 %cmp329, label %for.body, label %for.end

for.body:                                         ; preds = %for.cond.preheader, %for.inc
  %10 = phi i16 [ %14, %for.inc ], [ %9, %for.cond.preheader ]
  %indvars.iv = phi i64 [ %indvars.iv.next, %for.inc ], [ 0, %for.cond.preheader ]
  %11 = load ptr, ptr %historicRules, align 8
  %arrayidx = getelementptr inbounds ptr, ptr %11, i64 %indvars.iv
  %12 = load ptr, ptr %arrayidx, align 8
  %cmp34.not = icmp eq ptr %12, null
  br i1 %cmp34.not, label %for.inc, label %delete.notnull40

delete.notnull40:                                 ; preds = %for.body
  %vtable41 = load ptr, ptr %12, align 8
  %vfn42 = getelementptr inbounds i8, ptr %vtable41, i64 8
  %13 = load ptr, ptr %vfn42, align 8
  tail call void %13(ptr noundef nonnull align 8 dereferenceable(352) %12) #16
  %.pre = load i16, ptr %historicRuleCount, align 8
  br label %for.inc

for.inc:                                          ; preds = %for.body, %delete.notnull40
  %14 = phi i16 [ %10, %for.body ], [ %.pre, %delete.notnull40 ]
  %indvars.iv.next = add nuw nsw i64 %indvars.iv, 1
  %15 = sext i16 %14 to i64
  %cmp32 = icmp slt i64 %indvars.iv.next, %15
  br i1 %cmp32, label %for.body, label %for.end.loopexit, !llvm.loop !5

for.end.loopexit:                                 ; preds = %for.inc
  %.pre12 = load ptr, ptr %historicRules, align 8
  br label %for.end

for.end:                                          ; preds = %for.end.loopexit, %for.cond.preheader
  %16 = phi ptr [ %.pre12, %for.end.loopexit ], [ %8, %for.cond.preheader ]
  tail call void @uprv_free_75(ptr noundef %16)
  br label %if.end46

if.end46:                                         ; preds = %for.end, %if.end29
  store ptr null, ptr %finalZoneWithStartYear, align 8
  %transitionRulesInitOnce.i = getelementptr inbounds i8, ptr %this, i64 216
  tail call void @llvm.memset.p0.i64(ptr noundef nonnull align 8 dereferenceable(18) %initialRule, i8 0, i64 18, i1 false)
  tail call void @llvm.memset.p0.i64(ptr noundef nonnull align 8 dereferenceable(18) %firstFinalTZTransition, i8 0, i64 18, i1 false)
  store atomic i32 0, ptr %transitionRulesInitOnce.i seq_cst, align 8
  ret void
}